target datalayout = "e-m:e-p270:32:32-p271:32:32-p272:64:64-i64:64-i128:128-f80:128-n8:16:32:64-S128"
target triple = "x86_64-pc-linux-gnu"

@hf_ansi_637_trans_cause_codes_seq_num = internal global i32 0, align 4
@hf_ansi_637_trans_cause_codes_error_class = internal global i32 0, align 4
@hf_ansi_637_trans_cause_codes_code = internal global i32 0, align 4
@.str.43 = private unnamed_addr constant [9 x i8] c"Reserved\00", align 1
@.str.342 = private unnamed_addr constant [8 x i8] c"%s (%u)\00", align 1
@.str.429 = private unnamed_addr constant [30 x i8] c" - Reply Sequence Number (%u)\00", align 1
@.str.430 = private unnamed_addr constant [15 x i8] c"Address vacant\00", align 1
@.str.431 = private unnamed_addr constant [28 x i8] c"Address translation failure\00", align 1
@.str.432 = private unnamed_addr constant [26 x i8] c"Network resource shortage\00", align 1
@.str.433 = private unnamed_addr constant [16 x i8] c"Network failure\00", align 1
@.str.434 = private unnamed_addr constant [23 x i8] c"Invalid Teleservice ID\00", align 1
@.str.435 = private unnamed_addr constant [22 x i8] c"Other network problem\00", align 1
@.str.436 = private unnamed_addr constant [30 x i8] c"Unsupported network interface\00", align 1
@.str.437 = private unnamed_addr constant [17 x i8] c"No page response\00", align 1
@.str.438 = private unnamed_addr constant [17 x i8] c"Destination busy\00", align 1
@.str.439 = private unnamed_addr constant [19 x i8] c"No acknowledgement\00", align 1
@.str.440 = private unnamed_addr constant [30 x i8] c"Destination resource shortage\00", align 1
@.str.441 = private unnamed_addr constant [23 x i8] c"SMS delivery postponed\00", align 1
@.str.442 = private unnamed_addr constant [27 x i8] c"Destination out of service\00", align 1
@.str.443 = private unnamed_addr constant [38 x i8] c"Destination no longer at this address\00", align 1
@.str.444 = private unnamed_addr constant [23 x i8] c"Other terminal problem\00", align 1
@.str.445 = private unnamed_addr constant [34 x i8] c"Radio interface resource shortage\00", align 1
@.str.446 = private unnamed_addr constant [32 x i8] c"Radio interface incompatibility\00", align 1
@.str.447 = private unnamed_addr constant [30 x i8] c"Other radio interface problem\00", align 1
@.str.448 = private unnamed_addr constant [36 x i8] c"Unsupported Base Station Capability\00", align 1
@.str.449 = private unnamed_addr constant [17 x i8] c"Encoding problem\00", align 1
@.str.450 = private unnamed_addr constant [27 x i8] c"Service origination denied\00", align 1
@.str.451 = private unnamed_addr constant [27 x i8] c"Service termination denied\00", align 1
@.str.452 = private unnamed_addr constant [36 x i8] c"Supplementary service not supported\00", align 1
@.str.453 = private unnamed_addr constant [22 x i8] c"Service not supported\00", align 1
@.str.454 = private unnamed_addr constant [27 x i8] c"Missing expected parameter\00", align 1
@.str.455 = private unnamed_addr constant [28 x i8] c"Missing mandatory parameter\00", align 1
@.str.456 = private unnamed_addr constant [29 x i8] c"Unrecognized parameter value\00", align 1
@.str.457 = private unnamed_addr constant [27 x i8] c"Unexpected parameter value\00", align 1
@.str.458 = private unnamed_addr constant [21 x i8] c"User Data size error\00", align 1
@.str.459 = private unnamed_addr constant [23 x i8] c"Other general problems\00", align 1
@.str.460 = private unnamed_addr constant [19 x i8] c"Session not active\00", align 1
@.str.461 = private unnamed_addr constant [41 x i8] c"Reserved, treat as Other network problem\00", align 1
@.str.462 = private unnamed_addr constant [42 x i8] c"Reserved, treat as Other terminal problem\00", align 1
@.str.463 = private unnamed_addr constant [42 x i8] c"Reserved, treat as SMS delivery postponed\00", align 1
@.str.464 = private unnamed_addr constant [49 x i8] c"Reserved, treat as Other radio interface problem\00", align 1
@.str.465 = private unnamed_addr constant [42 x i8] c"Reserved, treat as Other general problems\00", align 1
@.str.466 = private unnamed_addr constant [65 x i8] c"Reserved for protocol extension, treat as Other general problems\00", align 1

; Function Attrs: null_pointer_is_valid sspstrong uwtable
define internal void @trans_param_cause_codes(ptr noundef %0, ptr noundef %1, ptr noundef %2, i32 noundef %3, i32 noundef %4, ptr noundef %5, i32 noundef %6) #0 {
  %8 = alloca ptr, align 8
  %9 = alloca ptr, align 8
  %10 = alloca ptr, align 8
  %11 = alloca i32, align 4
  %12 = alloca i32, align 4
  %13 = alloca ptr, align 8
  %14 = alloca i32, align 4
  %15 = alloca i8, align 1
  %16 = alloca ptr, align 8
  %17 = alloca i32, align 4
  store ptr %0, ptr %8, align 8
  store ptr %1, ptr %9, align 8
  store ptr %2, ptr %10, align 8
  store i32 %3, ptr %11, align 4
  store i32 %4, ptr %12, align 4
  store ptr %5, ptr %13, align 8
  store i32 %6, ptr %14, align 4
  call void @llvm.lifetime.start.p0(i64 1, ptr %15) #7
  call void @llvm.lifetime.start.p0(i64 8, ptr %16) #7
  %18 = load ptr, ptr %10, align 8
  %19 = load i32, ptr @hf_ansi_637_trans_cause_codes_seq_num, align 4
  %20 = load ptr, ptr %8, align 8
  %21 = load i32, ptr %12, align 4
  %22 = call ptr @proto_tree_add_item(ptr noundef %18, i32 noundef %19, ptr noundef %20, i32 noundef %21, i32 noundef 1, i32 noundef 0)
  %23 = load ptr, ptr %10, align 8
  %24 = load i32, ptr @hf_ansi_637_trans_cause_codes_error_class, align 4
  %25 = load ptr, ptr %8, align 8
  %26 = load i32, ptr %12, align 4
  %27 = call ptr @proto_tree_add_item(ptr noundef %23, i32 noundef %24, ptr noundef %25, i32 noundef %26, i32 noundef 1, i32 noundef 0)
  %28 = load ptr, ptr %8, align 8
  %29 = load i32, ptr %12, align 4
  %30 = call zeroext i8 @tvb_get_uint8(ptr noundef %28, i32 noundef %29)
  store i8 %30, ptr %15, align 1
  %31 = load ptr, ptr %13, align 8
  %32 = load i32, ptr %14, align 4
  %33 = sext i32 %32 to i64
  %34 = load ptr, ptr %13, align 8
  %35 = call i64 @llvm.objectsize.i64.p0(ptr %34, i1 false, i1 true, i1 true)
  %36 = load i8, ptr %15, align 1
  %37 = zext i8 %36 to i32
  %38 = and i32 %37, 252
  %39 = ashr i32 %38, 2
  %40 = call i32 (ptr, i64, i32, i64, ptr, ...) @__snprintf_chk(ptr noundef %31, i64 noundef %33, i32 noundef 2, i64 noundef %35, ptr noundef @.str.429, i32 noundef %39)
  %41 = load i8, ptr %15, align 1
  %42 = zext i8 %41 to i32
  %43 = and i32 %42, 3
  %44 = icmp ne i32 %43, 0
  br i1 %44, label %46, label %45

45:                                               ; preds = %7
  store i32 1, ptr %17, align 4
  br label %152

46:                                               ; preds = %7
  %47 = load i32, ptr %11, align 4
  %48 = icmp eq i32 %47, 1
  br i1 %48, label %49, label %50

49:                                               ; preds = %46
  store i32 1, ptr %17, align 4
  br label %152

50:                                               ; preds = %46
  %51 = load i32, ptr %12, align 4
  %52 = add i32 %51, 1
  store i32 %52, ptr %12, align 4
  %53 = load ptr, ptr %8, align 8
  %54 = load i32, ptr %12, align 4
  %55 = call zeroext i8 @tvb_get_uint8(ptr noundef %53, i32 noundef %54)
  store i8 %55, ptr %15, align 1
  %56 = load i8, ptr %15, align 1
  %57 = zext i8 %56 to i32
  switch i32 %57, label %90 [
    i32 0, label %58
    i32 1, label %59
    i32 2, label %60
    i32 3, label %61
    i32 4, label %62
    i32 5, label %63
    i32 6, label %64
    i32 32, label %65
    i32 33, label %66
    i32 34, label %67
    i32 35, label %68
    i32 36, label %69
    i32 37, label %70
    i32 38, label %71
    i32 39, label %72
    i32 64, label %73
    i32 65, label %74
    i32 66, label %75
    i32 67, label %76
    i32 96, label %77
    i32 97, label %78
    i32 98, label %79
    i32 99, label %80
    i32 100, label %81
    i32 101, label %82
    i32 102, label %83
    i32 103, label %84
    i32 104, label %85
    i32 105, label %86
    i32 106, label %87
    i32 107, label %88
    i32 108, label %89
  ]

58:                                               ; preds = %50
  store ptr @.str.430, ptr %16, align 8
  br label %141

59:                                               ; preds = %50
  store ptr @.str.431, ptr %16, align 8
  br label %141

60:                                               ; preds = %50
  store ptr @.str.432, ptr %16, align 8
  br label %141

61:                                               ; preds = %50
  store ptr @.str.433, ptr %16, align 8
  br label %141

62:                                               ; preds = %50
  store ptr @.str.434, ptr %16, align 8
  br label %141

63:                                               ; preds = %50
  store ptr @.str.435, ptr %16, align 8
  br label %141

64:                                               ; preds = %50
  store ptr @.str.436, ptr %16, align 8
  br label %141

65:                                               ; preds = %50
  store ptr @.str.437, ptr %16, align 8
  br label %141

66:                                               ; preds = %50
  store ptr @.str.438, ptr %16, align 8
  br label %141

67:                                               ; preds = %50
  store ptr @.str.439, ptr %16, align 8
  br label %141

68:                                               ; preds = %50
  store ptr @.str.440, ptr %16, align 8
  br label %141

69:                                               ; preds = %50
  store ptr @.str.441, ptr %16, align 8
  br label %141

70:                                               ; preds = %50
  store ptr @.str.442, ptr %16, align 8
  br label %141

71:                                               ; preds = %50
  store ptr @.str.443, ptr %16, align 8
  br label %141

72:                                               ; preds = %50
  store ptr @.str.444, ptr %16, align 8
  br label %141

73:                                               ; preds = %50
  store ptr @.str.445, ptr %16, align 8
  br label %141

74:                                               ; preds = %50
  store ptr @.str.446, ptr %16, align 8
  br label %141

75:                                               ; preds = %50
  store ptr @.str.447, ptr %16, align 8
  br label %141

76:                                               ; preds = %50
  store ptr @.str.448, ptr %16, align 8
  br label %141

77:                                               ; preds = %50
  store ptr @.str.449, ptr %16, align 8
  br label %141

78:                                               ; preds = %50
  store ptr @.str.450, ptr %16, align 8
  br label %141

79:                                               ; preds = %50
  store ptr @.str.451, ptr %16, align 8
  br label %141

80:                                               ; preds = %50
  store ptr @.str.452, ptr %16, align 8
  br label %141

81:                                               ; preds = %50
  store ptr @.str.453, ptr %16, align 8
  br label %141

82:                                               ; preds = %50
  store ptr @.str.43, ptr %16, align 8
  br label %141

83:                                               ; preds = %50
  store ptr @.str.454, ptr %16, align 8
  br label %141

84:                                               ; preds = %50
  store ptr @.str.455, ptr %16, align 8
  br label %141

85:                                               ; preds = %50
  store ptr @.str.456, ptr %16, align 8
  br label %141

86:                                               ; preds = %50
  store ptr @.str.457, ptr %16, align 8
  br label %141

87:                                               ; preds = %50
  store ptr @.str.458, ptr %16, align 8
  br label %141

88:                                               ; preds = %50
  store ptr @.str.459, ptr %16, align 8
  br label %141

89:                                               ; preds = %50
  store ptr @.str.460, ptr %16, align 8
  br label %141

90:                                               ; preds = %50
  %91 = load i8, ptr %15, align 1
  %92 = zext i8 %91 to i32
  %93 = icmp sge i32 %92, 7
  br i1 %93, label %94, label %99

94:                                               ; preds = %90
  %95 = load i8, ptr %15, align 1
  %96 = zext i8 %95 to i32
  %97 = icmp sle i32 %96, 31
  br i1 %97, label %98, label %99

98:                                               ; preds = %94
  store ptr @.str.461, ptr %16, align 8
  br label %140

99:                                               ; preds = %94, %90
  %100 = load i8, ptr %15, align 1
  %101 = zext i8 %100 to i32
  %102 = icmp sge i32 %101, 40
  br i1 %102, label %103, label %108

103:                                              ; preds = %99
  %104 = load i8, ptr %15, align 1
  %105 = zext i8 %104 to i32
  %106 = icmp sle i32 %105, 47
  br i1 %106, label %107, label %108

107:                                              ; preds = %103
  store ptr @.str.462, ptr %16, align 8
  br label %139

108:                                              ; preds = %103, %99
  %109 = load i8, ptr %15, align 1
  %110 = zext i8 %109 to i32
  %111 = icmp sge i32 %110, 48
  br i1 %111, label %112, label %117

112:                                              ; preds = %108
  %113 = load i8, ptr %15, align 1
  %114 = zext i8 %113 to i32
  %115 = icmp sle i32 %114, 63
  br i1 %115, label %116, label %117

116:                                              ; preds = %112
  store ptr @.str.463, ptr %16, align 8
  br label %138

117:                                              ; preds = %112, %108
  %118 = load i8, ptr %15, align 1
  %119 = zext i8 %118 to i32
  %120 = icmp sge i32 %119, 68
  br i1 %120, label %121, label %126

121:                                              ; preds = %117
  %122 = load i8, ptr %15, align 1
  %123 = zext i8 %122 to i32
  %124 = icmp sle i32 %123, 95
  br i1 %124, label %125, label %126

125:                                              ; preds = %121
  store ptr @.str.464, ptr %16, align 8
  br label %137

126:                                              ; preds = %121, %117
  %127 = load i8, ptr %15, align 1
  %128 = zext i8 %127 to i32
  %129 = icmp sge i32 %128, 109
  br i1 %129, label %130, label %135

130:                                              ; preds = %126
  %131 = load i8, ptr %15, align 1
  %132 = zext i8 %131 to i32
  %133 = icmp sle i32 %132, 223
  br i1 %133, label %134, label %135

134:                                              ; preds = %130
  store ptr @.str.465, ptr %16, align 8
  br label %136

135:                                              ; preds = %130, %126
  store ptr @.str.466, ptr %16, align 8
  br label %136

136:                                              ; preds = %135, %134
  br label %137

137:                                              ; preds = %136, %125
  br label %138

138:                                              ; preds = %137, %116
  br label %139

139:                                              ; preds = %138, %107
  br label %140

140:                                              ; preds = %139, %98
  br label %141

141:                                              ; preds = %140, %89, %88, %87, %86, %85, %84, %83, %82, %81, %80, %79, %78, %77, %76, %75, %74, %73, %72, %71, %70, %69, %68, %67, %66, %65, %64, %63, %62, %61, %60, %59, %58
  %142 = load ptr, ptr %10, align 8
  %143 = load i32, ptr @hf_ansi_637_trans_cause_codes_code, align 4
  %144 = load ptr, ptr %8, align 8
  %145 = load i32, ptr %12, align 4
  %146 = load i8, ptr %15, align 1
  %147 = zext i8 %146 to i32
  %148 = load ptr, ptr %16, align 8
  %149 = load i8, ptr %15, align 1
  %150 = zext i8 %149 to i32
  %151 = call ptr (ptr, i32, ptr, i32, i32, i32, ptr, ...) @proto_tree_add_uint_format_value(ptr noundef %142, i32 noundef %143, ptr noundef %144, i32 noundef %145, i32 noundef 1, i32 noundef %147, ptr noundef @.str.342, ptr noundef %148, i32 noundef %150)
  store i32 0, ptr %17, align 4
  br label %152

152:                                              ; preds = %141, %49, %45
  call void @llvm.lifetime.end.p0(i64 8, ptr %16) #7
  call void @llvm.lifetime.end.p0(i64 1, ptr %15) #7
  %153 = load i32, ptr %17, align 4
  switch i32 %153, label %155 [
    i32 0, label %154
    i32 1, label %154
  ]

154:                                              ; preds = %152, %152
  ret void

155:                                              ; preds = %152
  unreachable
}