; Function Attrs: null_pointer_is_valid sspstrong uwtable
define internal void @trans_param_cause_codes(ptr noundef %0, ptr readnone captures(none) %1, ptr noundef %2, i32 noundef %3, i32 noundef %4, ptr noundef %5, i32 noundef %6) #0 {
  %8 = load i32, ptr @hf_ansi_637_trans_cause_codes_seq_num, align 4
  %9 = tail call ptr @proto_tree_add_item(ptr noundef %2, i32 noundef %8, ptr noundef %0, i32 noundef %4, i32 noundef 1, i32 noundef 0)
  %10 = load i32, ptr @hf_ansi_637_trans_cause_codes_error_class, align 4
  %11 = tail call ptr @proto_tree_add_item(ptr noundef %2, i32 noundef %10, ptr noundef %0, i32 noundef %4, i32 noundef 1, i32 noundef 0)
  %12 = tail call zeroext i8 @tvb_get_uint8(ptr noundef %0, i32 noundef %4)
  %13 = sext i32 %6 to i64
  %14 = zext i8 %12 to i32
  %15 = lshr i32 %14, 2
  %16 = tail call i32 (ptr, i64, i32, i64, ptr, ...) @__snprintf_chk(ptr noundef %5, i64 noundef %13, i32 noundef 2, i64 noundef -1, ptr noundef nonnull @.str.429, i32 noundef %15)
  %17 = and i32 %14, 3
  %.not = icmp eq i32 %17, 0
  %18 = icmp eq i32 %3, 1
  %or.cond47 = or i1 %18, %.not
  br i1 %or.cond47, label %67, label %19

19:                                               ; preds = %7
  %20 = add i32 %4, 1
  %21 = tail call zeroext i8 @tvb_get_uint8(ptr noundef %0, i32 noundef %20)
  %22 = zext i8 %21 to i32
  switch i8 %21, label %54 [
    i8 0, label %64
    i8 1, label %23
    i8 2, label %24
    i8 3, label %25
    i8 4, label %26
    i8 5, label %27
    i8 6, label %28
    i8 32, label %29
    i8 33, label %30
    i8 34, label %31
    i8 35, label %32
    i8 36, label %33
    i8 37, label %34
    i8 38, label %35
    i8 39, label %36
    i8 64, label %37
    i8 65, label %38
    i8 66, label %39
    i8 67, label %40
    i8 96, label %41
    i8 97, label %42
    i8 98, label %43
    i8 99, label %44
    i8 100, label %45
    i8 101, label %46
    i8 102, label %47
    i8 103, label %48
    i8 104, label %49
    i8 105, label %50
    i8 106, label %51
    i8 107, label %52
    i8 108, label %53
  ]

23:                                               ; preds = %19
  br label %64

24:                                               ; preds = %19
  br label %64

25:                                               ; preds = %19
  br label %64

26:                                               ; preds = %19
  br label %64

27:                                               ; preds = %19
  br label %64

28:                                               ; preds = %19
  br label %64

29:                                               ; preds = %19
  br label %64

30:                                               ; preds = %19
  br label %64

31:                                               ; preds = %19
  br label %64

32:                                               ; preds = %19
  br label %64

33:                                               ; preds = %19
  br label %64

34:                                               ; preds = %19
  br label %64

35:                                               ; preds = %19
  br label %64

36:                                               ; preds = %19
  br label %64

37:                                               ; preds = %19
  br label %64

38:                                               ; preds = %19
  br label %64

39:                                               ; preds = %19
  br label %64

40:                                               ; preds = %19
  br label %64

41:                                               ; preds = %19
  br label %64

42:                                               ; preds = %19
  br label %64

43:                                               ; preds = %19
  br label %64

44:                                               ; preds = %19
  br label %64

45:                                               ; preds = %19
  br label %64

46:                                               ; preds = %19
  br label %64

47:                                               ; preds = %19
  br label %64

48:                                               ; preds = %19
  br label %64

49:                                               ; preds = %19
  br label %64

50:                                               ; preds = %19
  br label %64

51:                                               ; preds = %19
  br label %64

52:                                               ; preds = %19
  br label %64

53:                                               ; preds = %19
  br label %64

54:                                               ; preds = %19
  %55 = add i8 %21, -7
  %or.cond = icmp ult i8 %55, 25
  br i1 %or.cond, label %64, label %56

56:                                               ; preds = %54
  %57 = and i8 %21, -8
  %or.cond5 = icmp eq i8 %57, 40
  br i1 %or.cond5, label %64, label %58

58:                                               ; preds = %56
  %59 = and i8 %21, -16
  %or.cond8 = icmp eq i8 %59, 48
  br i1 %or.cond8, label %64, label %60

60:                                               ; preds = %58
  %61 = add i8 %21, -68
  %or.cond11 = icmp ult i8 %61, 28
  br i1 %or.cond11, label %64, label %62

62:                                               ; preds = %60
  %63 = add i8 %21, -109
  %or.cond14 = icmp ult i8 %63, 115
  %.str.465..str.466 = select i1 %or.cond14, ptr @.str.465, ptr @.str.466
  br label %64

64:                                               ; preds = %62, %60, %58, %56, %54, %19, %53, %52, %51, %50, %49, %48, %47, %46, %45, %44, %43, %42, %41, %40, %39, %38, %37, %36, %35, %34, %33, %32, %31, %30, %29, %28, %27, %26, %25, %24, %23
  %.0 = phi ptr [ @.str.460, %53 ], [ @.str.459, %52 ], [ @.str.458, %51 ], [ @.str.457, %50 ], [ @.str.456, %49 ], [ @.str.455, %48 ], [ @.str.454, %47 ], [ @.str.43, %46 ], [ @.str.453, %45 ], [ @.str.452, %44 ], [ @.str.451, %43 ], [ @.str.450, %42 ], [ @.str.449, %41 ], [ @.str.448, %40 ], [ @.str.447, %39 ], [ @.str.446, %38 ], [ @.str.445, %37 ], [ @.str.444, %36 ], [ @.str.443, %35 ], [ @.str.442, %34 ], [ @.str.441, %33 ], [ @.str.440, %32 ], [ @.str.439, %31 ], [ @.str.438, %30 ], [ @.str.437, %29 ], [ @.str.436, %28 ], [ @.str.435, %27 ], [ @.str.434, %26 ], [ @.str.433, %25 ], [ @.str.432, %24 ], [ @.str.431, %23 ], [ @.str.430, %19 ], [ @.str.461, %54 ], [ @.str.462, %56 ], [ @.str.463, %58 ], [ @.str.464, %60 ], [ %.str.465..str.466, %62 ]
  %65 = load i32, ptr @hf_ansi_637_trans_cause_codes_code, align 4
  %66 = tail call ptr (ptr, i32, ptr, i32, i32, i32, ptr, ...) @proto_tree_add_uint_format_value(ptr noundef %2, i32 noundef %65, ptr noundef %0, i32 noundef %20, i32 noundef 1, i32 noundef %22, ptr noundef nonnull @.str.342, ptr noundef nonnull %.0, i32 noundef %22)
  br label %67

67:                                               ; preds = %7, %64
  ret void
}